; Function Attrs: nounwind uwtable
define dso_local range(i32 0, 2) i32 @raxPrev(ptr noundef %0) local_unnamed_addr #1 {
  %2 = tail call i32 @raxIteratorPrevStep(ptr noundef %0, i32 noundef 0)
  %.not = icmp eq i32 %2, 0
  br i1 %.not, label %.sink.split, label %3

3:                                                ; preds = %1
  %4 = load i32, ptr %0, align 8, !tbaa !32
  %5 = and i32 %4, 2
  %.not2 = icmp eq i32 %5, 0
  br i1 %.not2, label %7, label %.sink.split

.sink.split:                                      ; preds = %3, %1
  %.sink = phi i32 [ 12, %1 ], [ 0, %3 ]
  %6 = tail call ptr @__errno_location() #29
  store i32 %.sink, ptr %6, align 4, !tbaa !5
  br label %7

7:                                                ; preds = %.sink.split, %3
  %.0 = phi i32 [ 1, %3 ], [ 0, %.sink.split ]
  ret i32 %.0
}